target datalayout = "e-m:e-p270:32:32-p271:32:32-p272:64:64-i64:64-i128:128-f80:128-n8:16:32:64-S128"
target triple = "x86_64-pc-linux-gnu"

%struct.rawSeqStore_t = type { ptr, i64, i64, i64, i64 }
%struct.rawSeq = type { i32, i32, i32 }

; Function Attrs: nounwind uwtable
define dso_local void @ZSTD_ldm_skipSequences(ptr noundef %0, i64 noundef %1, i32 noundef %2) #0 {
  %4 = alloca ptr, align 8
  %5 = alloca i64, align 8
  %6 = alloca i32, align 4
  %7 = alloca ptr, align 8
  store ptr %0, ptr %4, align 8
  store i64 %1, ptr %5, align 8
  store i32 %2, ptr %6, align 4
  br label %8

8:                                                ; preds = %94, %3
  %9 = load i64, ptr %5, align 8
  %10 = icmp ugt i64 %9, 0
  br i1 %10, label %11, label %19

11:                                               ; preds = %8
  %12 = load ptr, ptr %4, align 8
  %13 = getelementptr inbounds %struct.rawSeqStore_t, ptr %12, i32 0, i32 1
  %14 = load i64, ptr %13, align 8
  %15 = load ptr, ptr %4, align 8
  %16 = getelementptr inbounds %struct.rawSeqStore_t, ptr %15, i32 0, i32 3
  %17 = load i64, ptr %16, align 8
  %18 = icmp ult i64 %14, %17
  br label %19

19:                                               ; preds = %11, %8
  %20 = phi i1 [ false, %8 ], [ %18, %11 ]
  br i1 %20, label %21, label %107

21:                                               ; preds = %19
  %22 = load ptr, ptr %4, align 8
  %23 = getelementptr inbounds %struct.rawSeqStore_t, ptr %22, i32 0, i32 0
  %24 = load ptr, ptr %23, align 8
  %25 = load ptr, ptr %4, align 8
  %26 = getelementptr inbounds %struct.rawSeqStore_t, ptr %25, i32 0, i32 1
  %27 = load i64, ptr %26, align 8
  %28 = getelementptr inbounds %struct.rawSeq, ptr %24, i64 %27
  store ptr %28, ptr %7, align 8
  %29 = load i64, ptr %5, align 8
  %30 = load ptr, ptr %7, align 8
  %31 = getelementptr inbounds %struct.rawSeq, ptr %30, i32 0, i32 1
  %32 = load i32, ptr %31, align 4
  %33 = zext i32 %32 to i64
  %34 = icmp ule i64 %29, %33
  br i1 %34, label %35, label %42

35:                                               ; preds = %21
  %36 = load i64, ptr %5, align 8
  %37 = trunc i64 %36 to i32
  %38 = load ptr, ptr %7, align 8
  %39 = getelementptr inbounds %struct.rawSeq, ptr %38, i32 0, i32 1
  %40 = load i32, ptr %39, align 4
  %41 = sub i32 %40, %37
  store i32 %41, ptr %39, align 4
  br label %107

42:                                               ; preds = %21
  %43 = load ptr, ptr %7, align 8
  %44 = getelementptr inbounds %struct.rawSeq, ptr %43, i32 0, i32 1
  %45 = load i32, ptr %44, align 4
  %46 = zext i32 %45 to i64
  %47 = load i64, ptr %5, align 8
  %48 = sub i64 %47, %46
  store i64 %48, ptr %5, align 8
  %49 = load ptr, ptr %7, align 8
  %50 = getelementptr inbounds %struct.rawSeq, ptr %49, i32 0, i32 1
  store i32 0, ptr %50, align 4
  %51 = load i64, ptr %5, align 8
  %52 = load ptr, ptr %7, align 8
  %53 = getelementptr inbounds %struct.rawSeq, ptr %52, i32 0, i32 2
  %54 = load i32, ptr %53, align 4
  %55 = zext i32 %54 to i64
  %56 = icmp ult i64 %51, %55
  br i1 %56, label %57, label %94

57:                                               ; preds = %42
  %58 = load i64, ptr %5, align 8
  %59 = trunc i64 %58 to i32
  %60 = load ptr, ptr %7, align 8
  %61 = getelementptr inbounds %struct.rawSeq, ptr %60, i32 0, i32 2
  %62 = load i32, ptr %61, align 4
  %63 = sub i32 %62, %59
  store i32 %63, ptr %61, align 4
  %64 = load ptr, ptr %7, align 8
  %65 = getelementptr inbounds %struct.rawSeq, ptr %64, i32 0, i32 2
  %66 = load i32, ptr %65, align 4
  %67 = load i32, ptr %6, align 4
  %68 = icmp ult i32 %66, %67
  br i1 %68, label %69, label %93

69:                                               ; preds = %57
  %70 = load ptr, ptr %4, align 8
  %71 = getelementptr inbounds %struct.rawSeqStore_t, ptr %70, i32 0, i32 1
  %72 = load i64, ptr %71, align 8
  %73 = add i64 %72, 1
  %74 = load ptr, ptr %4, align 8
  %75 = getelementptr inbounds %struct.rawSeqStore_t, ptr %74, i32 0, i32 3
  %76 = load i64, ptr %75, align 8
  %77 = icmp ult i64 %73, %76
  br i1 %77, label %78, label %88

78:                                               ; preds = %69
  %79 = load ptr, ptr %7, align 8
  %80 = getelementptr inbounds %struct.rawSeq, ptr %79, i64 0
  %81 = getelementptr inbounds %struct.rawSeq, ptr %80, i32 0, i32 2
  %82 = load i32, ptr %81, align 4
  %83 = load ptr, ptr %7, align 8
  %84 = getelementptr inbounds %struct.rawSeq, ptr %83, i64 1
  %85 = getelementptr inbounds %struct.rawSeq, ptr %84, i32 0, i32 1
  %86 = load i32, ptr %85, align 4
  %87 = add i32 %86, %82
  store i32 %87, ptr %85, align 4
  br label %88

88:                                               ; preds = %78, %69
  %89 = load ptr, ptr %4, align 8
  %90 = getelementptr inbounds %struct.rawSeqStore_t, ptr %89, i32 0, i32 1
  %91 = load i64, ptr %90, align 8
  %92 = add i64 %91, 1
  store i64 %92, ptr %90, align 8
  br label %93

93:                                               ; preds = %88, %57
  br label %107

94:                                               ; preds = %42
  %95 = load ptr, ptr %7, align 8
  %96 = getelementptr inbounds %struct.rawSeq, ptr %95, i32 0, i32 2
  %97 = load i32, ptr %96, align 4
  %98 = zext i32 %97 to i64
  %99 = load i64, ptr %5, align 8
  %100 = sub i64 %99, %98
  store i64 %100, ptr %5, align 8
  %101 = load ptr, ptr %7, align 8
  %102 = getelementptr inbounds %struct.rawSeq, ptr %101, i32 0, i32 2
  store i32 0, ptr %102, align 4
  %103 = load ptr, ptr %4, align 8
  %104 = getelementptr inbounds %struct.rawSeqStore_t, ptr %103, i32 0, i32 1
  %105 = load i64, ptr %104, align 8
  %106 = add i64 %105, 1
  store i64 %106, ptr %104, align 8
  br label %8, !llvm.loop !16

107:                                              ; preds = %93, %35, %19
  ret void
}