; Function Attrs: nofree norecurse nosync nounwind memory(readwrite, inaccessiblemem: none) uwtable
define dso_local void @ZSTD_ldm_skipSequences(ptr noundef captures(none) %0, i64 noundef %1, i32 noundef %2) local_unnamed_addr #5 {
  %.not46 = icmp eq i64 %1, 0
  br i1 %.not46, label %.critedge, label %.lr.ph

.lr.ph:                                           ; preds = %3
  %4 = getelementptr inbounds nuw i8, ptr %0, i64 8
  %5 = getelementptr inbounds nuw i8, ptr %0, i64 24
  %.pre = load i64, ptr %4, align 8
  br label %6

6:                                                ; preds = %.lr.ph, %39
  %7 = phi i64 [ %.pre, %.lr.ph ], [ %42, %39 ]
  %.047 = phi i64 [ %1, %.lr.ph ], [ %40, %39 ]
  %8 = load i64, ptr %5, align 8
  %9 = icmp ult i64 %7, %8
  br i1 %9, label %10, label %.critedge

10:                                               ; preds = %6
  %11 = load ptr, ptr %0, align 8
  %12 = getelementptr inbounds %struct.rawSeq, ptr %11, i64 %7
  %13 = getelementptr inbounds nuw i8, ptr %12, i64 4
  %14 = load i32, ptr %13, align 4
  %15 = zext i32 %14 to i64
  %.not31 = icmp ugt i64 %.047, %15
  br i1 %.not31, label %19, label %16

16:                                               ; preds = %10
  %17 = trunc nuw i64 %.047 to i32
  %18 = sub i32 %14, %17
  store i32 %18, ptr %13, align 4
  br label %.critedge

19:                                               ; preds = %10
  %20 = sub nuw i64 %.047, %15
  store i32 0, ptr %13, align 4
  %21 = getelementptr inbounds nuw i8, ptr %12, i64 8
  %22 = load i32, ptr %21, align 4
  %23 = zext i32 %22 to i64
  %24 = icmp ult i64 %20, %23
  br i1 %24, label %25, label %39

25:                                               ; preds = %19
  %26 = trunc nuw i64 %20 to i32
  %27 = sub i32 %22, %26
  store i32 %27, ptr %21, align 4
  %28 = icmp ult i32 %27, %2
  br i1 %28, label %29, label %.critedge

29:                                               ; preds = %25
  %30 = load i64, ptr %4, align 8
  %31 = add i64 %30, 1
  %32 = load i64, ptr %5, align 8
  %33 = icmp ult i64 %31, %32
  br i1 %33, label %34, label %38

34:                                               ; preds = %29
  %35 = getelementptr inbounds nuw i8, ptr %12, i64 16
  %36 = load i32, ptr %35, align 4
  %37 = add i32 %36, %27
  store i32 %37, ptr %35, align 4
  %.pre59 = load i64, ptr %4, align 8
  %.pre60 = add i64 %.pre59, 1
  br label %38

38:                                               ; preds = %34, %29
  %.pre-phi = phi i64 [ %.pre60, %34 ], [ %31, %29 ]
  store i64 %.pre-phi, ptr %4, align 8
  br label %.critedge

39:                                               ; preds = %19
  %40 = sub nuw i64 %20, %23
  store i32 0, ptr %21, align 4
  %41 = load i64, ptr %4, align 8
  %42 = add i64 %41, 1
  store i64 %42, ptr %4, align 8
  %.not = icmp eq i64 %40, 0
  br i1 %.not, label %.critedge, label %6, !llvm.loop !18

.critedge:                                        ; preds = %6, %39, %3, %25, %38, %16
  ret void
}